target datalayout = "e-m:e-p270:32:32-p271:32:32-p272:64:64-i64:64-i128:128-f80:128-n8:16:32:64-S128"
target triple = "x86_64-pc-linux-gnu"

; Function Attrs: mustprogress uwtable
define internal noundef i32 @_ZN6icu_7712_GLOBAL__N_110daysInYearEiR10UErrorCode(i32 noundef %0, ptr noundef nonnull align 4 dereferenceable(4) %1) #0 {
  %3 = alloca i32, align 4
  %4 = alloca i32, align 4
  %5 = alloca ptr, align 8
  store i32 %0, ptr %4, align 4, !tbaa !15
  store ptr %1, ptr %5, align 8, !tbaa !10
  %6 = load ptr, ptr %5, align 8, !tbaa !10
  %7 = load i32, ptr %6, align 4, !tbaa !17
  %8 = call noundef signext i8 @_ZL9U_FAILURE10UErrorCode(i32 noundef %7)
  %9 = icmp ne i8 %8, 0
  br i1 %9, label %10, label %11

10:                                               ; preds = %2
  store i32 0, ptr %3, align 4
  br label %20

11:                                               ; preds = %2
  %12 = load i32, ptr %4, align 4, !tbaa !15
  %13 = add nsw i32 %12, 1
  %14 = load ptr, ptr %5, align 8, !tbaa !10
  %15 = call noundef i32 @_ZN6icu_7712_GLOBAL__N_111startOfYearEiR10UErrorCode(i32 noundef %13, ptr noundef nonnull align 4 dereferenceable(4) %14)
  %16 = load i32, ptr %4, align 4, !tbaa !15
  %17 = load ptr, ptr %5, align 8, !tbaa !10
  %18 = call noundef i32 @_ZN6icu_7712_GLOBAL__N_111startOfYearEiR10UErrorCode(i32 noundef %16, ptr noundef nonnull align 4 dereferenceable(4) %17)
  %19 = sub nsw i32 %15, %18
  store i32 %19, ptr %3, align 4
  br label %20

20:                                               ; preds = %11, %10
  %21 = load i32, ptr %3, align 4
  ret i32 %21
}

; Function Attrs: mustprogress nounwind uwtable
define noundef signext i8 @_ZN6icu_7714HebrewCalendar10isLeapYearEi(i32 noundef %0) #3 align 2 {
  %2 = alloca i32, align 4
  %3 = alloca i64, align 8
  store i32 %0, ptr %2, align 4, !tbaa !15
  call void @llvm.lifetime.start.p0(i64 8, ptr %3) #11
  %4 = load i32, ptr %2, align 4, !tbaa !15
  %5 = sext i32 %4 to i64
  %6 = mul nsw i64 %5, 12
  %7 = add nsw i64 %6, 17
  %8 = srem i64 %7, 19
  store i64 %8, ptr %3, align 8, !tbaa !19
  %9 = load i64, ptr %3, align 8, !tbaa !19
  %10 = load i64, ptr %3, align 8, !tbaa !19
  %11 = icmp slt i64 %10, 0
  %12 = select i1 %11, i32 -7, i32 12
  %13 = sext i32 %12 to i64
  %14 = icmp sge i64 %9, %13
  %15 = zext i1 %14 to i8
  call void @llvm.lifetime.end.p0(i64 8, ptr %3) #11
  ret i8 %15
}

; Function Attrs: mustprogress uwtable
define internal noundef i32 @_ZN6icu_7712_GLOBAL__N_18yearTypeEiR10UErrorCode(i32 noundef %0, ptr noundef nonnull align 4 dereferenceable(4) %1) #0 {
  %3 = alloca i32, align 4
  %4 = alloca i32, align 4
  %5 = alloca ptr, align 8
  %6 = alloca i32, align 4
  %7 = alloca i32, align 4
  %8 = alloca i32, align 4
  store i32 %0, ptr %4, align 4, !tbaa !15
  store ptr %1, ptr %5, align 8, !tbaa !10
  %9 = load ptr, ptr %5, align 8, !tbaa !10
  %10 = load i32, ptr %9, align 4, !tbaa !17
  %11 = call noundef signext i8 @_ZL9U_FAILURE10UErrorCode(i32 noundef %10)
  %12 = icmp ne i8 %11, 0
  br i1 %12, label %13, label %14

13:                                               ; preds = %2
  store i32 0, ptr %3, align 4
  br label %38

14:                                               ; preds = %2
  call void @llvm.lifetime.start.p0(i64 4, ptr %6) #11
  %15 = load i32, ptr %4, align 4, !tbaa !15
  %16 = load ptr, ptr %5, align 8, !tbaa !10
  %17 = call noundef i32 @_ZN6icu_7712_GLOBAL__N_110daysInYearEiR10UErrorCode(i32 noundef %15, ptr noundef nonnull align 4 dereferenceable(4) %16)
  store i32 %17, ptr %6, align 4, !tbaa !15
  %18 = load ptr, ptr %5, align 8, !tbaa !10
  %19 = load i32, ptr %18, align 4, !tbaa !17
  %20 = call noundef signext i8 @_ZL9U_FAILURE10UErrorCode(i32 noundef %19)
  %21 = icmp ne i8 %20, 0
  br i1 %21, label %22, label %23

22:                                               ; preds = %14
  store i32 0, ptr %3, align 4
  store i32 1, ptr %7, align 4
  br label %37

23:                                               ; preds = %14
  %24 = load i32, ptr %6, align 4, !tbaa !15
  %25 = icmp sgt i32 %24, 380
  br i1 %25, label %26, label %29

26:                                               ; preds = %23
  %27 = load i32, ptr %6, align 4, !tbaa !15
  %28 = sub nsw i32 %27, 30
  store i32 %28, ptr %6, align 4, !tbaa !15
  br label %29

29:                                               ; preds = %26, %23
  call void @llvm.lifetime.start.p0(i64 4, ptr %8) #11
  store i32 0, ptr %8, align 4, !tbaa !15
  %30 = load i32, ptr %6, align 4, !tbaa !15
  switch i32 %30, label %34 [
    i32 353, label %31
    i32 354, label %32
    i32 355, label %33
  ]

31:                                               ; preds = %29
  store i32 0, ptr %8, align 4, !tbaa !15
  br label %35

32:                                               ; preds = %29
  store i32 1, ptr %8, align 4, !tbaa !15
  br label %35

33:                                               ; preds = %29
  store i32 2, ptr %8, align 4, !tbaa !15
  br label %35

34:                                               ; preds = %29
  store i32 1, ptr %8, align 4, !tbaa !15
  br label %35

35:                                               ; preds = %34, %33, %32, %31
  %36 = load i32, ptr %8, align 4, !tbaa !15
  store i32 %36, ptr %3, align 4
  store i32 1, ptr %7, align 4
  call void @llvm.lifetime.end.p0(i64 4, ptr %8) #11
  br label %37

37:                                               ; preds = %35, %22
  call void @llvm.lifetime.end.p0(i64 4, ptr %6) #11
  br label %38

38:                                               ; preds = %37, %13
  %39 = load i32, ptr %3, align 4
  ret i32 %39
}

; Function Attrs: mustprogress nounwind uwtable
define internal noundef i32 @_ZN6icu_7712_GLOBAL__N_112monthsInYearEi(i32 noundef %0) #3 {
  %2 = alloca i32, align 4
  store i32 %0, ptr %2, align 4, !tbaa !15
  %3 = load i32, ptr %2, align 4, !tbaa !15
  %4 = call noundef signext i8 @_ZN6icu_7714HebrewCalendar10isLeapYearEi(i32 noundef %3)
  %5 = icmp ne i8 %4, 0
  %6 = select i1 %5, i32 13, i32 12
  ret i32 %6
}

; Function Attrs: inlinehint mustprogress nounwind uwtable
define internal noundef signext i8 @_ZL9U_FAILURE10UErrorCode(i32 noundef %0) #4 {
  %2 = alloca i32, align 4
  store i32 %0, ptr %2, align 4, !tbaa !17
  %3 = load i32, ptr %2, align 4, !tbaa !17
  %4 = icmp sgt i32 %3, 0
  %5 = zext i1 %4 to i8
  ret i8 %5
}

; Function Attrs: mustprogress uwtable
define noundef i32 @_ZNK6icu_7714HebrewCalendar20handleGetMonthLengthEiiR10UErrorCode(ptr noundef nonnull align 8 dereferenceable(192) %0, i32 noundef %1, i32 noundef %2, ptr noundef nonnull align 4 dereferenceable(4) %3) unnamed_addr #0 align 2 {
  %5 = alloca i32, align 4
  %6 = alloca ptr, align 8
  %7 = alloca i32, align 4
  %8 = alloca i32, align 4
  %9 = alloca ptr, align 8
  %10 = alloca i32, align 4
  %11 = alloca i32, align 4
  store ptr %0, ptr %6, align 8, !tbaa !3
  store i32 %1, ptr %7, align 4, !tbaa !15
  store i32 %2, ptr %8, align 4, !tbaa !15
  store ptr %3, ptr %9, align 8, !tbaa !10
  %12 = load ptr, ptr %9, align 8, !tbaa !10
  %13 = load i32, ptr %12, align 4, !tbaa !17
  %14 = call noundef signext i8 @_ZL9U_FAILURE10UErrorCode(i32 noundef %13)
  %15 = icmp ne i8 %14, 0
  br i1 %15, label %16, label %17

16:                                               ; preds = %4
  store i32 0, ptr %5, align 4
  br label %65

17:                                               ; preds = %4
  br label %18

18:                                               ; preds = %21, %17
  %19 = load i32, ptr %8, align 4, !tbaa !15
  %20 = icmp slt i32 %19, 0
  br i1 %20, label %21, label %27

21:                                               ; preds = %18
  %22 = load i32, ptr %7, align 4, !tbaa !15
  %23 = add nsw i32 %22, -1
  store i32 %23, ptr %7, align 4, !tbaa !15
  %24 = call noundef i32 @_ZN6icu_7712_GLOBAL__N_112monthsInYearEi(i32 noundef %23)
  %25 = load i32, ptr %8, align 4, !tbaa !15
  %26 = add nsw i32 %25, %24
  store i32 %26, ptr %8, align 4, !tbaa !15
  br label %18, !llvm.loop !29

27:                                               ; preds = %18
  br label %28

28:                                               ; preds = %31, %27
  %29 = load i32, ptr %8, align 4, !tbaa !15
  %30 = icmp sgt i32 %29, 12
  br i1 %30, label %31, label %37

31:                                               ; preds = %28
  %32 = load i32, ptr %7, align 4, !tbaa !15
  %33 = add nsw i32 %32, 1
  store i32 %33, ptr %7, align 4, !tbaa !15
  %34 = call noundef i32 @_ZN6icu_7712_GLOBAL__N_112monthsInYearEi(i32 noundef %32)
  %35 = load i32, ptr %8, align 4, !tbaa !15
  %36 = sub nsw i32 %35, %34
  store i32 %36, ptr %8, align 4, !tbaa !15
  br label %28, !llvm.loop !30

37:                                               ; preds = %28
  %38 = load i32, ptr %8, align 4, !tbaa !15
  switch i32 %38, label %58 [
    i32 1, label %39
    i32 2, label %39
  ]

39:                                               ; preds = %37, %37
  call void @llvm.lifetime.start.p0(i64 4, ptr %10) #11
  %40 = load i32, ptr %7, align 4, !tbaa !15
  %41 = load ptr, ptr %9, align 8, !tbaa !10
  %42 = call noundef i32 @_ZN6icu_7712_GLOBAL__N_18yearTypeEiR10UErrorCode(i32 noundef %40, ptr noundef nonnull align 4 dereferenceable(4) %41)
  store i32 %42, ptr %10, align 4, !tbaa !15
  %43 = load ptr, ptr %9, align 8, !tbaa !10
  %44 = load i32, ptr %43, align 4, !tbaa !17
  %45 = call noundef signext i8 @_ZL9U_FAILURE10UErrorCode(i32 noundef %44)
  %46 = icmp ne i8 %45, 0
  br i1 %46, label %47, label %48

47:                                               ; preds = %39
  store i32 0, ptr %5, align 4
  store i32 1, ptr %11, align 4
  br label %57

48:                                               ; preds = %39
  %49 = load i32, ptr %8, align 4, !tbaa !15
  %50 = sext i32 %49 to i64
  %51 = getelementptr inbounds [13 x [3 x i8]], ptr @_ZL12MONTH_LENGTH, i64 0, i64 %50
  %52 = load i32, ptr %10, align 4, !tbaa !15
  %53 = sext i32 %52 to i64
  %54 = getelementptr inbounds [3 x i8], ptr %51, i64 0, i64 %53
  %55 = load i8, ptr %54, align 1, !tbaa !21
  %56 = sext i8 %55 to i32
  store i32 %56, ptr %5, align 4
  store i32 1, ptr %11, align 4
  br label %57

57:                                               ; preds = %48, %47
  call void @llvm.lifetime.end.p0(i64 4, ptr %10) #11
  br label %65

58:                                               ; preds = %37
  %59 = load i32, ptr %8, align 4, !tbaa !15
  %60 = sext i32 %59 to i64
  %61 = getelementptr inbounds [13 x [3 x i8]], ptr @_ZL12MONTH_LENGTH, i64 0, i64 %60
  %62 = getelementptr inbounds [3 x i8], ptr %61, i64 0, i64 0
  %63 = load i8, ptr %62, align 1, !tbaa !21
  %64 = sext i8 %63 to i32
  store i32 %64, ptr %5, align 4
  br label %65

65:                                               ; preds = %58, %57, %16
  %66 = load i32, ptr %5, align 4
  ret i32 %66
}