; Function Attrs: mustprogress uwtable
define noundef range(i32 -128, 128) i32 @_ZNK6icu_7714HebrewCalendar20handleGetMonthLengthEiiR10UErrorCode(ptr nonnull readnone align 8 captures(none) %0, i32 noundef %1, i32 noundef %2, ptr noundef nonnull align 4 dereferenceable(4) %3) unnamed_addr #0 align 2 {
  %5 = load i32, ptr %3, align 4, !tbaa !6
  %6 = icmp slt i32 %5, 1
  br i1 %6, label %.preheader20, label %_ZN6icu_7712_GLOBAL__N_18yearTypeEiR10UErrorCode.exit

.preheader20:                                     ; preds = %4
  %7 = icmp slt i32 %2, 0
  br i1 %7, label %.lr.ph.preheader, label %.preheader

.lr.ph.preheader:                                 ; preds = %.preheader20
  %8 = sext i32 %1 to i64
  br label %.lr.ph

.preheader.thread:                                ; preds = %.lr.ph
  %9 = trunc nsw i64 %indvars.iv.next to i32
  br label %._crit_edge

.preheader:                                       ; preds = %.preheader20
  %10 = icmp samesign ugt i32 %2, 12
  br i1 %10, label %.lr.ph26.preheader, label %._crit_edge

.lr.ph26.preheader:                               ; preds = %.preheader
  %11 = sext i32 %1 to i64
  br label %.lr.ph26

.lr.ph:                                           ; preds = %.lr.ph.preheader, %.lr.ph
  %indvars.iv = phi i64 [ %8, %.lr.ph.preheader ], [ %indvars.iv.next, %.lr.ph ]
  %.01621 = phi i32 [ %2, %.lr.ph.preheader ], [ %18, %.lr.ph ]
  %indvars.iv.next = add nsw i64 %indvars.iv, -1
  %12 = mul nsw i64 %indvars.iv.next, 12
  %13 = add nsw i64 %12, 17
  %14 = srem i64 %13, 19
  %15 = icmp slt i64 %14, 0
  %16 = select i1 %15, i64 -7, i64 12
  %.not1.i = icmp slt i64 %14, %16
  %17 = select i1 %.not1.i, i32 12, i32 13
  %18 = add nsw i32 %17, %.01621
  %19 = icmp slt i32 %18, 0
  br i1 %19, label %.lr.ph, label %.preheader.thread, !llvm.loop !14

.lr.ph26:                                         ; preds = %.lr.ph26.preheader, %.lr.ph26
  %indvars.iv33 = phi i64 [ %11, %.lr.ph26.preheader ], [ %indvars.iv.next34, %.lr.ph26 ]
  %.11724 = phi i32 [ %2, %.lr.ph26.preheader ], [ %25, %.lr.ph26 ]
  %indvars.iv.next34 = add nsw i64 %indvars.iv33, 1
  %20 = mul nsw i64 %indvars.iv33, 12
  %21 = add nsw i64 %20, 17
  %22 = srem i64 %21, 19
  %23 = icmp slt i64 %22, 0
  %24 = select i1 %23, i64 -7, i64 12
  %.not1.i19 = icmp slt i64 %22, %24
  %.neg = select i1 %.not1.i19, i32 -12, i32 -13
  %25 = add i32 %.neg, %.11724
  %26 = icmp samesign ugt i32 %25, 12
  br i1 %26, label %.lr.ph26, label %._crit_edge.loopexit, !llvm.loop !15

._crit_edge.loopexit:                             ; preds = %.lr.ph26
  %27 = trunc nsw i64 %indvars.iv.next34 to i32
  br label %._crit_edge

._crit_edge:                                      ; preds = %.preheader.thread, %._crit_edge.loopexit, %.preheader
  %.117.lcssa = phi i32 [ %2, %.preheader ], [ %25, %._crit_edge.loopexit ], [ %18, %.preheader.thread ]
  %.115.lcssa = phi i32 [ %1, %.preheader ], [ %27, %._crit_edge.loopexit ], [ %9, %.preheader.thread ]
  %.117.off = add nsw i32 %.117.lcssa, -1
  %switch = icmp ult i32 %.117.off, 2
  br i1 %switch, label %_ZN6icu_7712_GLOBAL__N_110daysInYearEiR10UErrorCode.exit.i, label %41

_ZN6icu_7712_GLOBAL__N_110daysInYearEiR10UErrorCode.exit.i: ; preds = %._crit_edge
  %28 = add nsw i32 %.115.lcssa, 1
  %29 = tail call fastcc noundef i32 @_ZN6icu_7712_GLOBAL__N_111startOfYearEiR10UErrorCode(i32 noundef %28, ptr noundef nonnull align 4 dereferenceable(4) %3)
  %30 = tail call fastcc noundef i32 @_ZN6icu_7712_GLOBAL__N_111startOfYearEiR10UErrorCode(i32 noundef %.115.lcssa, ptr noundef nonnull align 4 dereferenceable(4) %3)
  %31 = load i32, ptr %3, align 4, !tbaa !6
  %32 = icmp slt i32 %31, 1
  br i1 %32, label %33, label %_ZN6icu_7712_GLOBAL__N_18yearTypeEiR10UErrorCode.exit

33:                                               ; preds = %_ZN6icu_7712_GLOBAL__N_110daysInYearEiR10UErrorCode.exit.i
  %34 = sub nsw i32 %29, %30
  %35 = icmp sgt i32 %34, 380
  %36 = add nsw i32 %34, -30
  %spec.select.i = select i1 %35, i32 %36, i32 %34
  %switch.selectcmp.i = icmp eq i32 %spec.select.i, 355
  %switch.select.i = select i1 %switch.selectcmp.i, i64 2, i64 1
  %switch.selectcmp13.i = icmp eq i32 %spec.select.i, 353
  %switch.select14.i = select i1 %switch.selectcmp13.i, i64 0, i64 %switch.select.i
  %37 = zext nneg i32 %.117.lcssa to i64
  %38 = getelementptr inbounds nuw [13 x [3 x i8]], ptr @_ZL12MONTH_LENGTH, i64 0, i64 %37, i64 %switch.select14.i
  %39 = load i8, ptr %38, align 1, !tbaa !16
  %40 = sext i8 %39 to i32
  br label %_ZN6icu_7712_GLOBAL__N_18yearTypeEiR10UErrorCode.exit

41:                                               ; preds = %._crit_edge
  %42 = zext nneg i32 %.117.lcssa to i64
  %43 = getelementptr inbounds nuw [13 x [3 x i8]], ptr @_ZL12MONTH_LENGTH, i64 0, i64 %42
  %44 = load i8, ptr %43, align 1, !tbaa !16
  %45 = sext i8 %44 to i32
  br label %_ZN6icu_7712_GLOBAL__N_18yearTypeEiR10UErrorCode.exit

_ZN6icu_7712_GLOBAL__N_18yearTypeEiR10UErrorCode.exit: ; preds = %_ZN6icu_7712_GLOBAL__N_110daysInYearEiR10UErrorCode.exit.i, %33, %4, %41
  %.0 = phi i32 [ %45, %41 ], [ 0, %4 ], [ %40, %33 ], [ 0, %_ZN6icu_7712_GLOBAL__N_110daysInYearEiR10UErrorCode.exit.i ]
  ret i32 %.0
}